Certificate:
    Data:
        Version: 3 (0x2)
        Serial Number: 1 (0x1)
    Signature Algorithm: sha512WithRSAEncryption
        Issuer: C=AR, ST=CBA, L=CBA, O=FTS, OU=Freetech Solutions, CN=Omnileads
        Validity
            Not Before: Jun 25 01:32:16 2019 GMT
            Not After : Jun 20 01:32:16 2039 GMT
        Subject: C=AR, ST=CBA, L=CBA, O=FTS, OU=Freetech Solutions, CN=omniapp
        Subject Public Key Info:
            Public Key Algorithm: rsaEncryption
                Public-Key: (4096 bit)
                Modulus:
                    00:d7:50:40:51:e6:68:81:eb:19:15:92:0c:93:b7:
                    f8:20:31:ca:4c:bf:81:7e:d2:1b:03:42:e6:c6:d1:
                    f0:14:0d:c1:89:86:b8:b0:3f:db:44:86:03:d3:99:
                    67:9e:2a:0e:ad:99:21:54:8e:93:87:a8:be:9c:0e:
                    7d:90:ec:93:b9:05:17:cf:b5:47:c7:8e:1d:bf:9c:
                    c9:17:24:7f:05:6f:37:23:cd:08:de:d9:6f:39:e8:
                    b6:cf:e2:39:bf:77:18:77:a5:5d:63:91:9d:e6:b4:
                    4c:a7:f2:9b:bb:ee:eb:9c:5c:11:ce:7a:69:1d:5f:
                    83:b5:3f:d4:b3:15:e8:8d:88:11:9d:61:42:77:97:
                    38:7a:60:d3:25:2d:b0:1a:56:b5:bd:55:c7:1f:38:
                    9b:76:3d:49:1f:d1:69:11:98:6f:be:6a:8f:8a:5d:
                    2d:1c:90:4f:b2:d5:ff:f6:b1:77:f5:ca:45:64:74:
                    7b:21:ff:9e:54:cc:61:e7:67:e7:fe:bb:ce:3f:c4:
                    e5:6f:3c:0f:bb:bf:5e:11:00:e6:e1:af:fe:e1:83:
                    fe:ba:d1:1f:b9:a7:42:f6:9f:c2:cc:d0:16:e4:94:
                    f3:03:84:23:bd:2e:00:e9:ea:75:d6:27:4a:84:b1:
                    80:89:6c:dd:5e:bd:f4:98:69:f2:47:12:fa:12:68:
                    e9:4a:e5:e9:b6:8f:99:09:84:9e:01:ce:3b:5c:15:
                    3e:d7:98:a5:7d:f2:66:70:72:8c:47:9b:26:1b:03:
                    10:d0:cd:0b:2c:f6:e1:7f:cc:6b:c9:a7:95:52:1a:
                    d2:72:92:27:1e:a8:49:22:38:55:df:d1:f6:f2:e1:
                    52:ab:24:96:94:32:35:c7:45:4c:25:9b:bb:e5:e0:
                    99:f3:9f:57:65:ca:55:6b:e5:a8:71:0a:73:bd:00:
                    52:20:85:13:b9:2b:78:4d:9c:42:3b:af:4b:13:3a:
                    23:e1:72:15:30:8a:22:b2:82:e7:97:0f:ba:71:c5:
                    ef:dd:9f:38:92:05:3b:ab:ca:56:d9:83:ae:5b:1a:
                    7e:2f:f7:e1:a5:36:d2:0b:43:98:4c:8a:85:74:82:
                    b6:4c:84:49:ff:4c:d5:31:76:a9:04:fc:07:e4:5e:
                    86:ae:f9:75:4f:03:6f:8b:27:a5:1a:32:cd:eb:09:
                    f8:1c:b3:7f:d7:d4:3a:67:00:2d:98:d9:73:41:ae:
                    69:76:7b:88:6f:d0:73:28:6f:bd:63:4a:bb:72:ad:
                    10:e7:e9:d5:35:0c:a2:e6:09:27:a6:34:4c:36:8c:
                    d3:bb:e1:1d:64:00:09:4b:41:c9:b8:61:02:39:fa:
                    d1:8d:81:89:7e:3e:c7:3b:da:3a:1d:98:ee:a7:ef:
                    6f:84:fb
                Exponent: 65537 (0x10001)
        X509v3 extensions:
            X509v3 Basic Constraints: 
                CA:FALSE
            X509v3 Key Usage: 
                Digital Signature, Non Repudiation, Key Encipherment
            X509v3 Subject Alternative Name: 
                DNS:kamailio, DNS:omniapp
    Signature Algorithm: sha512WithRSAEncryption
         63:3d:30:9e:2a:45:03:84:7b:17:c5:a8:1f:79:03:eb:07:9a:
         3f:62:51:67:d8:a7:6a:12:fe:b2:d2:7b:b2:7d:d9:45:d4:95:
         a7:36:10:db:cf:9f:ee:49:44:17:3a:cf:71:b1:42:12:55:77:
         31:d5:97:b2:5b:89:32:fc:d4:28:d1:04:1a:17:70:76:f5:82:
         98:82:f1:fa:3c:4d:4f:e5:c2:20:d4:21:bb:f9:01:fa:5f:ec:
         03:40:b2:1f:13:e0:4b:fe:4b:1f:ce:1c:26:c0:6c:dd:7d:df:
         f6:7b:be:03:b1:ef:28:dc:42:d6:9f:ba:37:14:aa:40:dc:04:
         15:dd:14:f0:bb:55:a2:68:f8:0d:ce:0c:5c:ea:0d:3b:53:38:
         b3:5d:0c:a0:20:64:21:52:0b:e9:e5:c9:49:49:cf:c6:8e:ac:
         93:2f:46:c8:96:63:34:14:c8:6c:50:d8:20:b1:f7:18:58:53:
         91:ff:73:eb:08:fb:5e:87:c8:70:45:fd:30:3b:f9:86:18:ce:
         be:16:11:6a:d9:59:79:21:a2:d3:4a:bd:5c:82:16:b2:21:64:
         63:2a:4b:5c:3a:50:aa:89:8d:56:55:21:b1:94:4e:ee:ba:55:
         e8:4d:1f:5f:77:38:25:b1:a3:fc:cc:7d:3c:c8:10:dd:80:ac:
         7e:b0:63:84:d9:35:42:2c:bc:af:fb:14:18:ca:24:1e:d9:7a:
         b5:46:1c:18:4e:67:ae:ed:69:85:45:6c:d6:47:38:a8:1c:80:
         0b:a5:cf:59:57:3c:3a:5f:59:1e:e3:9e:30:1d:36:98:28:12:
         8f:8d:de:f6:18:d7:11:ac:e8:96:5e:08:59:23:73:fc:7f:cf:
         76:15:21:28:86:db:bc:97:51:34:0f:65:72:f1:d8:8a:ea:c8:
         09:cd:60:11:fb:c6:1f:d6:65:dd:8f:c9:30:75:35:62:22:99:
         c1:5f:01:a8:c2:8e:5b:f0:c7:00:b6:ed:bd:c9:73:45:b3:ff:
         2c:e9:42:e9:5e:d2:af:43:56:34:c9:a0:c7:06:83:e2:f6:b0:
         57:87:b3:d8:71:bd:e7:61:39:4d:24:10:a8:d3:81:32:55:7b:
         f3:41:c5:a4:97:58:4c:6b:f0:97:5a:d0:db:5c:78:6d:93:d8:
         d5:01:f0:40:49:1b:40:cc:ab:92:3a:ef:e6:40:29:8d:88:91:
         ba:c3:9a:f1:cc:b6:9d:15:4e:1c:fe:66:c3:14:c8:46:2f:88:
         38:ff:24:52:11:18:61:fd:7d:46:54:b4:55:42:88:ef:42:27:
         db:8d:ea:a8:02:26:e2:58:9a:cf:81:11:b1:75:64:ba:1d:c5:
         79:c2:e3:a1:73:b0:f8:37
-----BEGIN CERTIFICATE-----
MIIFgTCCA2mgAwIBAgIBATANBgkqhkiG9w0BAQ0FADBoMQswCQYDVQQGEwJBUjEM
MAoGA1UECAwDQ0JBMQwwCgYDVQQHDANDQkExDDAKBgNVBAoMA0ZUUzEbMBkGA1UE
CwwSRnJlZXRlY2ggU29sdXRpb25zMRIwEAYDVQQDDAlPbW5pbGVhZHMwHhcNMTkw
NjI1MDEzMjE2WhcNMzkwNjIwMDEzMjE2WjBmMQswCQYDVQQGEwJBUjEMMAoGA1UE
CAwDQ0JBMQwwCgYDVQQHDANDQkExDDAKBgNVBAoMA0ZUUzEbMBkGA1UECwwSRnJl
ZXRlY2ggU29sdXRpb25zMRAwDgYDVQQDDAdvbW5pYXBwMIICIjANBgkqhkiG9w0B
AQEFAAOCAg8AMIICCgKCAgEA11BAUeZogesZFZIMk7f4IDHKTL+BftIbA0LmxtHw
FA3BiYa4sD/bRIYD05lnnioOrZkhVI6Th6i+nA59kOyTuQUXz7VHx44dv5zJFyR/
BW83I80I3tlvOei2z+I5v3cYd6VdY5Gd5rRMp/Kbu+7rnFwRznppHV+DtT/UsxXo
jYgRnWFCd5c4emDTJS2wGla1vVXHHzibdj1JH9FpEZhvvmqPil0tHJBPstX/9rF3
9cpFZHR7If+eVMxh52fn/rvOP8TlbzwPu79eEQDm4a/+4YP+utEfuadC9p/CzNAW
5JTzA4QjvS4A6ep11idKhLGAiWzdXr30mGnyRxL6EmjpSuXpto+ZCYSeAc47XBU+
15ilffJmcHKMR5smGwMQ0M0LLPbhf8xryaeVUhrScpInHqhJIjhV39H28uFSqySW
lDI1x0VMJZu75eCZ859XZcpVa+WocQpzvQBSIIUTuSt4TZxCO69LEzoj4XIVMIoi
soLnlw+6ccXv3Z84kgU7q8pW2YOuWxp+L/fhpTbSC0OYTIqFdIK2TIRJ/0zVMXap
BPwH5F6Grvl1TwNviyelGjLN6wn4HLN/19Q6ZwAtmNlzQa5pdnuIb9BzKG+9Y0q7
cq0Q5+nVNQyi5gknpjRMNozTu+EdZAAJS0HJuGECOfrRjYGJfj7HO9o6HZjup+9v
hPsCAwEAAaM4MDYwCQYDVR0TBAIwADALBgNVHQ8EBAMCBeAwHAYDVR0RBBUwE4II
a2FtYWlsaW+CB29tbmlhcHAwDQYJKoZIhvcNAQENBQADggIBAGM9MJ4qRQOEexfF
qB95A+sHmj9iUWfYp2oS/rLSe7J92UXUlac2ENvPn+5JRBc6z3GxQhJVdzHVl7Jb
iTL81CjRBBoXcHb1gpiC8fo8TU/lwiDUIbv5Afpf7ANAsh8T4Ev+Sx/OHCbAbN19
3/Z7vgOx7yjcQtafujcUqkDcBBXdFPC7VaJo+A3ODFzqDTtTOLNdDKAgZCFSC+nl
yUlJz8aOrJMvRsiWYzQUyGxQ2CCx9xhYU5H/c+sI+16HyHBF/TA7+YYYzr4WEWrZ
WXkhotNKvVyCFrIhZGMqS1w6UKqJjVZVIbGUTu66VehNH193OCWxo/zMfTzIEN2A
rH6wY4TZNUIsvK/7FBjKJB7ZerVGHBhOZ67taYVFbNZHOKgcgAulz1lXPDpfWR7j
njAdNpgoEo+N3vYY1xGs6JZeCFkjc/x/z3YVISiG27yXUTQPZXLx2IrqyAnNYBH7
xh/WZd2PyTB1NWIimcFfAajCjlvwxwC27b3Jc0Wz/yzpQule0q9DVjTJoMcGg+L2
sFeHs9hxvedhOU0kEKjTgTJVe/NBxaSXWExr8Jda0NtceG2T2NUB8EBJG0DMq5I6
7+ZAKY2IkbrDmvHMtp0VThz+ZsMUyEYviDj/JFIRGGH9fUZUtFVCiO9CJ9uN6qgC
JuJYms+BEbF1ZLodxXnC46FzsPg3
-----END CERTIFICATE-----
